; Function Attrs: mustprogress uwtable
define void @_ZNK10open_spiel6garnet11GarnetState8ToStringB5cxx11Ev(ptr dead_on_unwind noalias writable sret(%"class.std::__cxx11::basic_string") align 8 %0, ptr nocapture noundef nonnull readonly align 8 dereferenceable(248) %1) unnamed_addr #3 align 2 {
  %3 = getelementptr inbounds nuw i8, ptr %1, i64 104
  %4 = load i32, ptr %3, align 8
  %5 = getelementptr inbounds nuw i8, ptr %1, i64 108
  %6 = load i32, ptr %5, align 4
  %7 = getelementptr inbounds nuw i8, ptr %1, i64 112
  %8 = load i32, ptr %7, align 8
  %9 = sext i32 %8 to i64
  %10 = getelementptr inbounds nuw i8, ptr %1, i64 96
  %11 = load i32, ptr %10, align 8
  %12 = getelementptr inbounds nuw i8, ptr %1, i64 100
  %13 = load i8, ptr %12, align 4
  %14 = trunc i8 %13 to i1
  tail call fastcc void @_ZN10open_spiel6garnet12_GLOBAL__N_113StateToStringB5cxx11Eiilib(ptr dead_on_unwind noalias writable align 8 %0, i32 noundef %4, i32 noundef %6, i64 noundef %9, i32 noundef %11, i1 noundef zeroext %14)
  ret void
}